target datalayout = "e-m:e-p270:32:32-p271:32:32-p272:64:64-i64:64-i128:128-f80:128-n8:16:32:64-S128"
target triple = "x86_64-unknown-linux-gnu"

%"class.std::vector" = type { %"struct.std::_Vector_base" }
%"struct.std::_Vector_base" = type { %"struct.std::_Vector_base<double, std::allocator<double>>::_Vector_impl" }
%"struct.std::_Vector_base<double, std::allocator<double>>::_Vector_impl" = type { %"struct.std::_Vector_base<double, std::allocator<double>>::_Vector_impl_data" }
%"struct.std::_Vector_base<double, std::allocator<double>>::_Vector_impl_data" = type { ptr, ptr, ptr }
%"class.QuantLib::MultiStepSwaption" = type { %"class.QuantLib::MultiProductMultiStep", i64, i64, %"class.boost::shared_ptr", %"class.std::vector", i64 }
%"class.QuantLib::MultiProductMultiStep" = type { %"class.QuantLib::MarketModelMultiProduct", %"class.std::vector", %"class.QuantLib::EvolutionDescription" }
%"class.QuantLib::MarketModelMultiProduct" = type { ptr }
%"class.QuantLib::EvolutionDescription" = type { i64, %"class.std::vector", %"class.std::vector", %"class.std::vector.0", %"class.std::vector", %"class.std::vector.5" }
%"class.std::vector.0" = type { %"struct.std::_Vector_base.1" }
%"struct.std::_Vector_base.1" = type { %"struct.std::_Vector_base<std::pair<unsigned long, unsigned long>, std::allocator<std::pair<unsigned long, unsigned long>>>::_Vector_impl" }
%"struct.std::_Vector_base<std::pair<unsigned long, unsigned long>, std::allocator<std::pair<unsigned long, unsigned long>>>::_Vector_impl" = type { %"struct.std::_Vector_base<std::pair<unsigned long, unsigned long>, std::allocator<std::pair<unsigned long, unsigned long>>>::_Vector_impl_data" }
%"struct.std::_Vector_base<std::pair<unsigned long, unsigned long>, std::allocator<std::pair<unsigned long, unsigned long>>>::_Vector_impl_data" = type { ptr, ptr, ptr }
%"class.std::vector.5" = type { %"struct.std::_Vector_base.6" }
%"struct.std::_Vector_base.6" = type { %"struct.std::_Vector_base<unsigned long, std::allocator<unsigned long>>::_Vector_impl" }
%"struct.std::_Vector_base<unsigned long, std::allocator<unsigned long>>::_Vector_impl" = type { %"struct.std::_Vector_base<unsigned long, std::allocator<unsigned long>>::_Vector_impl_data" }
%"struct.std::_Vector_base<unsigned long, std::allocator<unsigned long>>::_Vector_impl_data" = type { ptr, ptr, ptr }
%"class.boost::shared_ptr" = type { ptr, %"class.boost::detail::shared_count" }
%"class.boost::detail::shared_count" = type { ptr }
%"struct.QuantLib::MarketModelMultiProduct::CashFlow" = type { i64, double }
%"struct.std::_Vector_base.33" = type { %"struct.std::_Vector_base<std::vector<QuantLib::MarketModelMultiProduct::CashFlow>, std::allocator<std::vector<QuantLib::MarketModelMultiProduct::CashFlow>>>::_Vector_impl" }
%"struct.std::_Vector_base<std::vector<QuantLib::MarketModelMultiProduct::CashFlow>, std::allocator<std::vector<QuantLib::MarketModelMultiProduct::CashFlow>>>::_Vector_impl" = type { %"struct.std::_Vector_base<std::vector<QuantLib::MarketModelMultiProduct::CashFlow>, std::allocator<std::vector<QuantLib::MarketModelMultiProduct::CashFlow>>>::_Vector_impl_data" }
%"struct.std::_Vector_base<std::vector<QuantLib::MarketModelMultiProduct::CashFlow>, std::allocator<std::vector<QuantLib::MarketModelMultiProduct::CashFlow>>>::_Vector_impl_data" = type { ptr, ptr, ptr }
%"class.std::vector.37" = type { %"struct.std::_Vector_base.38" }
%"struct.std::_Vector_base.38" = type { %"struct.std::_Vector_base<QuantLib::MarketModelMultiProduct::CashFlow, std::allocator<QuantLib::MarketModelMultiProduct::CashFlow>>::_Vector_impl" }
%"struct.std::_Vector_base<QuantLib::MarketModelMultiProduct::CashFlow, std::allocator<QuantLib::MarketModelMultiProduct::CashFlow>>::_Vector_impl" = type { %"struct.std::_Vector_base<QuantLib::MarketModelMultiProduct::CashFlow, std::allocator<QuantLib::MarketModelMultiProduct::CashFlow>>::_Vector_impl_data" }
%"struct.std::_Vector_base<QuantLib::MarketModelMultiProduct::CashFlow, std::allocator<QuantLib::MarketModelMultiProduct::CashFlow>>::_Vector_impl_data" = type { ptr, ptr, ptr }

@.str.9 = private unnamed_addr constant [8 x i8] c"px != 0\00", align 1
@.str.10 = private unnamed_addr constant [102 x i8] c"generated/home/dtcxzyw/WorkSpace/SDK/vcpkg/installed/x64-linux/include/boost/smart_ptr/shared_ptr.hpp\00", align 1
@__PRETTY_FUNCTION__._ZNK5boost10shared_ptrIN8QuantLib17StrikedTypePayoffEEdeEv = private unnamed_addr constant [148 x i8] c"typename boost::detail::sp_dereference<T>::type boost::shared_ptr<QuantLib::StrikedTypePayoff>::operator*() const [T = QuantLib::StrikedTypePayoff]\00", align 1

; Function Attrs: mustprogress nounwind uwtable
define linkonce_odr noundef nonnull align 8 dereferenceable(8) ptr @_ZNSt6vectorImSaImEEixEm(ptr noundef nonnull align 8 dereferenceable(24) %this, i64 noundef %__n) #5 comdat align 2 {
entry:
  %this.addr = alloca ptr, align 8
  %__n.addr = alloca i64, align 8
  store ptr %this, ptr %this.addr, align 8, !tbaa !3
  store i64 %__n, ptr %__n.addr, align 8, !tbaa !12
  %this1 = load ptr, ptr %this.addr, align 8
  %_M_impl = getelementptr inbounds nuw %"struct.std::_Vector_base.6", ptr %this1, i32 0, i32 0
  %_M_start = getelementptr inbounds nuw %"struct.std::_Vector_base<unsigned long, std::allocator<unsigned long>>::_Vector_impl_data", ptr %_M_impl, i32 0, i32 0
  %0 = load ptr, ptr %_M_start, align 8, !tbaa !45
  %1 = load i64, ptr %__n.addr, align 8, !tbaa !12
  %add.ptr = getelementptr inbounds nuw i64, ptr %0, i64 %1
  ret ptr %add.ptr
}

; Function Attrs: mustprogress uwtable
define linkonce_odr noundef nonnull align 8 dereferenceable(24) ptr @_ZNK5boost10shared_ptrIN8QuantLib17StrikedTypePayoffEEdeEv(ptr noundef nonnull align 8 dereferenceable(16) %this) #1 comdat align 2 {
entry:
  %this.addr = alloca ptr, align 8
  store ptr %this, ptr %this.addr, align 8, !tbaa !3
  %this1 = load ptr, ptr %this.addr, align 8
  %px = getelementptr inbounds nuw %"class.boost::shared_ptr", ptr %this1, i32 0, i32 0
  %0 = load ptr, ptr %px, align 8, !tbaa !33
  %cmp = icmp ne ptr %0, null
  %lnot = xor i1 %cmp, true
  %lnot2 = xor i1 %lnot, true
  %conv = zext i1 %lnot2 to i64
  %expval = call i64 @llvm.expect.i64(i64 %conv, i64 1)
  %tobool = icmp ne i64 %expval, 0
  br i1 %tobool, label %cond.true, label %cond.false

cond.true:                                        ; preds = %entry
  br label %cond.end

cond.false:                                       ; preds = %entry
  call void @_ZN5boost16assertion_failedEPKcS1_S1_l(ptr noundef @.str.9, ptr noundef @__PRETTY_FUNCTION__._ZNK5boost10shared_ptrIN8QuantLib17StrikedTypePayoffEEdeEv, ptr noundef @.str.10, i64 noundef 778)
  br label %cond.end

cond.end:                                         ; preds = %cond.false, %cond.true
  %px3 = getelementptr inbounds nuw %"class.boost::shared_ptr", ptr %this1, i32 0, i32 0
  %1 = load ptr, ptr %px3, align 8, !tbaa !33
  ret ptr %1
}

; Function Attrs: mustprogress nounwind uwtable
define linkonce_odr noundef nonnull align 8 dereferenceable(16) ptr @_ZNSt6vectorIN8QuantLib23MarketModelMultiProduct8CashFlowESaIS2_EEixEm(ptr noundef nonnull align 8 dereferenceable(24) %this, i64 noundef %__n) #5 comdat align 2 {
entry:
  %this.addr = alloca ptr, align 8
  %__n.addr = alloca i64, align 8
  store ptr %this, ptr %this.addr, align 8, !tbaa !3
  store i64 %__n, ptr %__n.addr, align 8, !tbaa !12
  %this1 = load ptr, ptr %this.addr, align 8
  %_M_impl = getelementptr inbounds nuw %"struct.std::_Vector_base.38", ptr %this1, i32 0, i32 0
  %_M_start = getelementptr inbounds nuw %"struct.std::_Vector_base<QuantLib::MarketModelMultiProduct::CashFlow, std::allocator<QuantLib::MarketModelMultiProduct::CashFlow>>::_Vector_impl_data", ptr %_M_impl, i32 0, i32 0
  %0 = load ptr, ptr %_M_start, align 8, !tbaa !43
  %1 = load i64, ptr %__n.addr, align 8, !tbaa !12
  %add.ptr = getelementptr inbounds nuw %"struct.QuantLib::MarketModelMultiProduct::CashFlow", ptr %0, i64 %1
  ret ptr %add.ptr
}

; Function Attrs: mustprogress nounwind uwtable
define linkonce_odr noundef nonnull align 8 dereferenceable(24) ptr @_ZNSt6vectorIS_IN8QuantLib23MarketModelMultiProduct8CashFlowESaIS2_EESaIS4_EEixEm(ptr noundef nonnull align 8 dereferenceable(24) %this, i64 noundef %__n) #5 comdat align 2 {
entry:
  %this.addr = alloca ptr, align 8
  %__n.addr = alloca i64, align 8
  store ptr %this, ptr %this.addr, align 8, !tbaa !3
  store i64 %__n, ptr %__n.addr, align 8, !tbaa !12
  %this1 = load ptr, ptr %this.addr, align 8
  %_M_impl = getelementptr inbounds nuw %"struct.std::_Vector_base.33", ptr %this1, i32 0, i32 0
  %_M_start = getelementptr inbounds nuw %"struct.std::_Vector_base<std::vector<QuantLib::MarketModelMultiProduct::CashFlow>, std::allocator<std::vector<QuantLib::MarketModelMultiProduct::CashFlow>>>::_Vector_impl_data", ptr %_M_impl, i32 0, i32 0
  %0 = load ptr, ptr %_M_start, align 8, !tbaa !41
  %1 = load i64, ptr %__n.addr, align 8, !tbaa !12
  %add.ptr = getelementptr inbounds nuw %"class.std::vector.37", ptr %0, i64 %1
  ret ptr %add.ptr
}

; Function Attrs: mustprogress uwtable
define noundef zeroext i1 @_ZN8QuantLib17MultiStepSwaption12nextTimeStepERKNS_10CurveStateERSt6vectorImSaImEERS4_IS4_INS_23MarketModelMultiProduct8CashFlowESaIS9_EESaISB_EE(ptr noundef nonnull align 8 dereferenceable(224) %this, ptr noundef nonnull align 8 dereferenceable(64) %currentState, ptr noundef nonnull align 8 dereferenceable(24) %numberCashFlowsThisStep, ptr noundef nonnull align 8 dereferenceable(24) %genCashFlows) unnamed_addr #1 align 2 {
entry:
  %retval = alloca i1, align 1
  %this.addr = alloca ptr, align 8
  %currentState.addr = alloca ptr, align 8
  %numberCashFlowsThisStep.addr = alloca ptr, align 8
  %genCashFlows.addr = alloca ptr, align 8
  %swapRate = alloca double, align 8
  %annuity = alloca double, align 8
  store ptr %this, ptr %this.addr, align 8, !tbaa !3
  store ptr %currentState, ptr %currentState.addr, align 8, !tbaa !3
  store ptr %numberCashFlowsThisStep, ptr %numberCashFlowsThisStep.addr, align 8, !tbaa !3
  store ptr %genCashFlows, ptr %genCashFlows.addr, align 8, !tbaa !3
  %this1 = load ptr, ptr %this.addr, align 8
  %currentIndex_ = getelementptr inbounds nuw %"class.QuantLib::MultiStepSwaption", ptr %this1, i32 0, i32 5
  %0 = load i64, ptr %currentIndex_, align 8, !tbaa !35
  %startIndex_ = getelementptr inbounds nuw %"class.QuantLib::MultiStepSwaption", ptr %this1, i32 0, i32 1
  %1 = load i64, ptr %startIndex_, align 8, !tbaa !14
  %cmp = icmp eq i64 %0, %1
  br i1 %cmp, label %if.then, label %if.else

if.then:                                          ; preds = %entry
  %2 = load ptr, ptr %genCashFlows.addr, align 8, !tbaa !3
  %call = call noundef nonnull align 8 dereferenceable(24) ptr @_ZNSt6vectorIS_IN8QuantLib23MarketModelMultiProduct8CashFlowESaIS2_EESaIS4_EEixEm(ptr noundef nonnull align 8 dereferenceable(24) %2, i64 noundef 0) #15
  %call2 = call noundef nonnull align 8 dereferenceable(16) ptr @_ZNSt6vectorIN8QuantLib23MarketModelMultiProduct8CashFlowESaIS2_EEixEm(ptr noundef nonnull align 8 dereferenceable(24) %call, i64 noundef 0) #15
  %timeIndex = getelementptr inbounds nuw %"struct.QuantLib::MarketModelMultiProduct::CashFlow", ptr %call2, i32 0, i32 0
  store i64 0, ptr %timeIndex, align 8, !tbaa !36
  call void @llvm.lifetime.start.p0(i64 8, ptr %swapRate) #15
  %3 = load ptr, ptr %currentState.addr, align 8, !tbaa !3
  %startIndex_3 = getelementptr inbounds nuw %"class.QuantLib::MultiStepSwaption", ptr %this1, i32 0, i32 1
  %4 = load i64, ptr %startIndex_3, align 8, !tbaa !14
  %endIndex_ = getelementptr inbounds nuw %"class.QuantLib::MultiStepSwaption", ptr %this1, i32 0, i32 2
  %5 = load i64, ptr %endIndex_, align 8, !tbaa !32
  %startIndex_4 = getelementptr inbounds nuw %"class.QuantLib::MultiStepSwaption", ptr %this1, i32 0, i32 1
  %6 = load i64, ptr %startIndex_4, align 8, !tbaa !14
  %sub = sub i64 %5, %6
  %vtable = load ptr, ptr %3, align 8, !tbaa !10
  %vfn = getelementptr inbounds ptr, ptr %vtable, i64 7
  %7 = load ptr, ptr %vfn, align 8
  %call5 = call noundef double %7(ptr noundef nonnull align 8 dereferenceable(64) %3, i64 noundef %4, i64 noundef %sub)
  store double %call5, ptr %swapRate, align 8, !tbaa !39
  call void @llvm.lifetime.start.p0(i64 8, ptr %annuity) #15
  %8 = load ptr, ptr %currentState.addr, align 8, !tbaa !3
  %startIndex_6 = getelementptr inbounds nuw %"class.QuantLib::MultiStepSwaption", ptr %this1, i32 0, i32 1
  %9 = load i64, ptr %startIndex_6, align 8, !tbaa !14
  %startIndex_7 = getelementptr inbounds nuw %"class.QuantLib::MultiStepSwaption", ptr %this1, i32 0, i32 1
  %10 = load i64, ptr %startIndex_7, align 8, !tbaa !14
  %endIndex_8 = getelementptr inbounds nuw %"class.QuantLib::MultiStepSwaption", ptr %this1, i32 0, i32 2
  %11 = load i64, ptr %endIndex_8, align 8, !tbaa !32
  %startIndex_9 = getelementptr inbounds nuw %"class.QuantLib::MultiStepSwaption", ptr %this1, i32 0, i32 1
  %12 = load i64, ptr %startIndex_9, align 8, !tbaa !14
  %sub10 = sub i64 %11, %12
  %vtable11 = load ptr, ptr %8, align 8, !tbaa !10
  %vfn12 = getelementptr inbounds ptr, ptr %vtable11, i64 6
  %13 = load ptr, ptr %vfn12, align 8
  %call13 = call noundef double %13(ptr noundef nonnull align 8 dereferenceable(64) %8, i64 noundef %9, i64 noundef %10, i64 noundef %sub10)
  store double %call13, ptr %annuity, align 8, !tbaa !39
  %payoff_ = getelementptr inbounds nuw %"class.QuantLib::MultiStepSwaption", ptr %this1, i32 0, i32 3
  %call14 = call noundef nonnull align 8 dereferenceable(24) ptr @_ZNK5boost10shared_ptrIN8QuantLib17StrikedTypePayoffEEdeEv(ptr noundef nonnull align 8 dereferenceable(16) %payoff_)
  %14 = load double, ptr %swapRate, align 8, !tbaa !39
  %vtable15 = load ptr, ptr %call14, align 8, !tbaa !10
  %vfn16 = getelementptr inbounds ptr, ptr %vtable15, i64 4
  %15 = load ptr, ptr %vfn16, align 8
  %call17 = call noundef double %15(ptr noundef nonnull align 8 dereferenceable(8) %call14, double noundef %14)
  %16 = load double, ptr %annuity, align 8, !tbaa !39
  %mul = fmul double %call17, %16
  %17 = load ptr, ptr %genCashFlows.addr, align 8, !tbaa !3
  %call18 = call noundef nonnull align 8 dereferenceable(24) ptr @_ZNSt6vectorIS_IN8QuantLib23MarketModelMultiProduct8CashFlowESaIS2_EESaIS4_EEixEm(ptr noundef nonnull align 8 dereferenceable(24) %17, i64 noundef 0) #15
  %call19 = call noundef nonnull align 8 dereferenceable(16) ptr @_ZNSt6vectorIN8QuantLib23MarketModelMultiProduct8CashFlowESaIS2_EEixEm(ptr noundef nonnull align 8 dereferenceable(24) %call18, i64 noundef 0) #15
  %amount = getelementptr inbounds nuw %"struct.QuantLib::MarketModelMultiProduct::CashFlow", ptr %call19, i32 0, i32 1
  store double %mul, ptr %amount, align 8, !tbaa !40
  %18 = load ptr, ptr %genCashFlows.addr, align 8, !tbaa !3
  %call20 = call noundef nonnull align 8 dereferenceable(24) ptr @_ZNSt6vectorIS_IN8QuantLib23MarketModelMultiProduct8CashFlowESaIS2_EESaIS4_EEixEm(ptr noundef nonnull align 8 dereferenceable(24) %18, i64 noundef 0) #15
  %call21 = call noundef nonnull align 8 dereferenceable(16) ptr @_ZNSt6vectorIN8QuantLib23MarketModelMultiProduct8CashFlowESaIS2_EEixEm(ptr noundef nonnull align 8 dereferenceable(24) %call20, i64 noundef 0) #15
  %amount22 = getelementptr inbounds nuw %"struct.QuantLib::MarketModelMultiProduct::CashFlow", ptr %call21, i32 0, i32 1
  %19 = load double, ptr %amount22, align 8, !tbaa !40
  %cmp23 = fcmp une double %19, 0.000000e+00
  %cond = select i1 %cmp23, i32 1, i32 0
  %conv = sext i32 %cond to i64
  %20 = load ptr, ptr %numberCashFlowsThisStep.addr, align 8, !tbaa !3
  %call24 = call noundef nonnull align 8 dereferenceable(8) ptr @_ZNSt6vectorImSaImEEixEm(ptr noundef nonnull align 8 dereferenceable(24) %20, i64 noundef 0) #15
  store i64 %conv, ptr %call24, align 8, !tbaa !12
  store i1 true, ptr %retval, align 1
  call void @llvm.lifetime.end.p0(i64 8, ptr %annuity) #15
  call void @llvm.lifetime.end.p0(i64 8, ptr %swapRate) #15
  br label %return

if.else:                                          ; preds = %entry
  %21 = load ptr, ptr %numberCashFlowsThisStep.addr, align 8, !tbaa !3
  %call25 = call noundef nonnull align 8 dereferenceable(8) ptr @_ZNSt6vectorImSaImEEixEm(ptr noundef nonnull align 8 dereferenceable(24) %21, i64 noundef 0) #15
  store i64 0, ptr %call25, align 8, !tbaa !12
  %currentIndex_26 = getelementptr inbounds nuw %"class.QuantLib::MultiStepSwaption", ptr %this1, i32 0, i32 5
  %22 = load i64, ptr %currentIndex_26, align 8, !tbaa !35
  %inc = add i64 %22, 1
  store i64 %inc, ptr %currentIndex_26, align 8, !tbaa !35
  store i1 false, ptr %retval, align 1
  br label %return

return:                                           ; preds = %if.else, %if.then
  %23 = load i1, ptr %retval, align 1
  ret i1 %23
}