; Function Attrs: mustprogress uwtable
define noundef zeroext i1 @_ZN8QuantLib17MultiStepSwaption12nextTimeStepERKNS_10CurveStateERSt6vectorImSaImEERS4_IS4_INS_23MarketModelMultiProduct8CashFlowESaIS9_EESaISB_EE(ptr nocapture noundef nonnull align 8 dereferenceable(224) %this, ptr noundef nonnull align 8 dereferenceable(64) %currentState, ptr nocapture noundef nonnull readonly align 8 dereferenceable(24) %numberCashFlowsThisStep, ptr nocapture noundef nonnull readonly align 8 dereferenceable(24) %genCashFlows) unnamed_addr #4 align 2 {
entry:
  %currentIndex_ = getelementptr inbounds nuw i8, ptr %this, i64 216
  %0 = load i64, ptr %currentIndex_, align 8, !tbaa !49
  %startIndex_ = getelementptr inbounds nuw i8, ptr %this, i64 160
  %1 = load i64, ptr %startIndex_, align 8, !tbaa !24
  %cmp = icmp eq i64 %0, %1
  br i1 %cmp, label %if.then, label %if.else

if.then:                                          ; preds = %entry
  %2 = load ptr, ptr %genCashFlows, align 8, !tbaa !50
  %3 = load ptr, ptr %2, align 8, !tbaa !52
  store i64 0, ptr %3, align 8, !tbaa !54
  %endIndex_ = getelementptr inbounds nuw i8, ptr %this, i64 168
  %4 = load i64, ptr %endIndex_, align 8, !tbaa !41
  %sub = sub i64 %4, %0
  %vtable = load ptr, ptr %currentState, align 8, !tbaa !20
  %vfn = getelementptr inbounds i8, ptr %vtable, i64 56
  %5 = load ptr, ptr %vfn, align 8
  %call5 = tail call noundef double %5(ptr noundef nonnull align 8 dereferenceable(64) %currentState, i64 noundef %0, i64 noundef %sub)
  %6 = load i64, ptr %startIndex_, align 8, !tbaa !24
  %7 = load i64, ptr %endIndex_, align 8, !tbaa !41
  %sub10 = sub i64 %7, %6
  %vtable11 = load ptr, ptr %currentState, align 8, !tbaa !20
  %vfn12 = getelementptr inbounds i8, ptr %vtable11, i64 48
  %8 = load ptr, ptr %vfn12, align 8
  %call13 = tail call noundef double %8(ptr noundef nonnull align 8 dereferenceable(64) %currentState, i64 noundef %6, i64 noundef %6, i64 noundef %sub10)
  %payoff_ = getelementptr inbounds nuw i8, ptr %this, i64 176
  %9 = load ptr, ptr %payoff_, align 8, !tbaa !42
  %cmp.not.i = icmp eq ptr %9, null
  br i1 %cmp.not.i, label %cond.false.i, label %_ZNK5boost10shared_ptrIN8QuantLib17StrikedTypePayoffEEdeEv.exit, !prof !9

cond.false.i:                                     ; preds = %if.then
  tail call void @_ZN5boost16assertion_failedEPKcS1_S1_l(ptr noundef nonnull @.str.9, ptr noundef nonnull @__PRETTY_FUNCTION__._ZNK5boost10shared_ptrIN8QuantLib17StrikedTypePayoffEEdeEv, ptr noundef nonnull @.str.10, i64 noundef 778)
  %.pre.i = load ptr, ptr %payoff_, align 8, !tbaa !42
  br label %_ZNK5boost10shared_ptrIN8QuantLib17StrikedTypePayoffEEdeEv.exit

_ZNK5boost10shared_ptrIN8QuantLib17StrikedTypePayoffEEdeEv.exit: ; preds = %if.then, %cond.false.i
  %10 = phi ptr [ %9, %if.then ], [ %.pre.i, %cond.false.i ]
  %vtable15 = load ptr, ptr %10, align 8, !tbaa !20
  %vfn16 = getelementptr inbounds i8, ptr %vtable15, i64 32
  %11 = load ptr, ptr %vfn16, align 8
  %call17 = tail call noundef double %11(ptr noundef nonnull align 8 dereferenceable(8) %10, double noundef %call5)
  %mul = fmul double %call13, %call17
  %12 = load ptr, ptr %genCashFlows, align 8, !tbaa !50
  %13 = load ptr, ptr %12, align 8, !tbaa !52
  %amount = getelementptr inbounds nuw i8, ptr %13, i64 8
  store double %mul, ptr %amount, align 8, !tbaa !56
  %cmp23 = fcmp une double %mul, 0.000000e+00
  %conv = zext i1 %cmp23 to i64
  %14 = load ptr, ptr %numberCashFlowsThisStep, align 8, !tbaa !45
  store i64 %conv, ptr %14, align 8, !tbaa !14
  br label %return

if.else:                                          ; preds = %entry
  %15 = load ptr, ptr %numberCashFlowsThisStep, align 8, !tbaa !45
  store i64 0, ptr %15, align 8, !tbaa !14
  %16 = load i64, ptr %currentIndex_, align 8, !tbaa !49
  %inc = add i64 %16, 1
  store i64 %inc, ptr %currentIndex_, align 8, !tbaa !49
  br label %return

return:                                           ; preds = %if.else, %_ZNK5boost10shared_ptrIN8QuantLib17StrikedTypePayoffEEdeEv.exit
  ret i1 %cmp
}